target datalayout = "e-m:e-p270:32:32-p271:32:32-p272:64:64-i64:64-i128:128-f80:128-n8:16:32:64-S128"
target triple = "x86_64-pc-linux-gnu"

; Function Attrs: nounwind uwtable
define internal void @intra_pred_down_left(ptr noundef %0, ptr noundef %1, ptr noundef %2, i64 noundef %3) #0 {
  %5 = alloca ptr, align 8
  %6 = alloca ptr, align 8
  %7 = alloca ptr, align 8
  %8 = alloca i64, align 8
  %9 = alloca i32, align 4
  %10 = alloca i32, align 4
  store ptr %0, ptr %5, align 8, !tbaa !57
  store ptr %1, ptr %6, align 8, !tbaa !57
  store ptr %2, ptr %7, align 8, !tbaa !57
  store i64 %3, ptr %8, align 8, !tbaa !107
  call void @llvm.lifetime.start.p0(i64 4, ptr %9) #10
  call void @llvm.lifetime.start.p0(i64 4, ptr %10) #10
  store i32 0, ptr %10, align 4, !tbaa !9
  br label %11

11:                                               ; preds = %103, %4
  %12 = load i32, ptr %10, align 4, !tbaa !9
  %13 = icmp slt i32 %12, 8
  br i1 %13, label %14, label %106

14:                                               ; preds = %11
  store i32 0, ptr %9, align 4, !tbaa !9
  br label %15

15:                                               ; preds = %99, %14
  %16 = load i32, ptr %9, align 4, !tbaa !9
  %17 = icmp slt i32 %16, 8
  br i1 %17, label %18, label %102

18:                                               ; preds = %15
  %19 = load ptr, ptr %6, align 8, !tbaa !57
  %20 = load i32, ptr %9, align 4, !tbaa !9
  %21 = load i32, ptr %10, align 4, !tbaa !9
  %22 = add nsw i32 %20, %21
  %23 = add nsw i32 %22, 2
  %24 = sub nsw i32 %23, 1
  %25 = sext i32 %24 to i64
  %26 = getelementptr inbounds i8, ptr %19, i64 %25
  %27 = load i8, ptr %26, align 1, !tbaa !27
  %28 = zext i8 %27 to i32
  %29 = load ptr, ptr %6, align 8, !tbaa !57
  %30 = load i32, ptr %9, align 4, !tbaa !9
  %31 = load i32, ptr %10, align 4, !tbaa !9
  %32 = add nsw i32 %30, %31
  %33 = add nsw i32 %32, 2
  %34 = sext i32 %33 to i64
  %35 = getelementptr inbounds i8, ptr %29, i64 %34
  %36 = load i8, ptr %35, align 1, !tbaa !27
  %37 = zext i8 %36 to i32
  %38 = mul nsw i32 2, %37
  %39 = add nsw i32 %28, %38
  %40 = load ptr, ptr %6, align 8, !tbaa !57
  %41 = load i32, ptr %9, align 4, !tbaa !9
  %42 = load i32, ptr %10, align 4, !tbaa !9
  %43 = add nsw i32 %41, %42
  %44 = add nsw i32 %43, 2
  %45 = add nsw i32 %44, 1
  %46 = sext i32 %45 to i64
  %47 = getelementptr inbounds i8, ptr %40, i64 %46
  %48 = load i8, ptr %47, align 1, !tbaa !27
  %49 = zext i8 %48 to i32
  %50 = add nsw i32 %39, %49
  %51 = add nsw i32 %50, 2
  %52 = ashr i32 %51, 2
  %53 = load ptr, ptr %7, align 8, !tbaa !57
  %54 = load i32, ptr %9, align 4, !tbaa !9
  %55 = load i32, ptr %10, align 4, !tbaa !9
  %56 = add nsw i32 %54, %55
  %57 = add nsw i32 %56, 2
  %58 = sub nsw i32 %57, 1
  %59 = sext i32 %58 to i64
  %60 = getelementptr inbounds i8, ptr %53, i64 %59
  %61 = load i8, ptr %60, align 1, !tbaa !27
  %62 = zext i8 %61 to i32
  %63 = load ptr, ptr %7, align 8, !tbaa !57
  %64 = load i32, ptr %9, align 4, !tbaa !9
  %65 = load i32, ptr %10, align 4, !tbaa !9
  %66 = add nsw i32 %64, %65
  %67 = add nsw i32 %66, 2
  %68 = sext i32 %67 to i64
  %69 = getelementptr inbounds i8, ptr %63, i64 %68
  %70 = load i8, ptr %69, align 1, !tbaa !27
  %71 = zext i8 %70 to i32
  %72 = mul nsw i32 2, %71
  %73 = add nsw i32 %62, %72
  %74 = load ptr, ptr %7, align 8, !tbaa !57
  %75 = load i32, ptr %9, align 4, !tbaa !9
  %76 = load i32, ptr %10, align 4, !tbaa !9
  %77 = add nsw i32 %75, %76
  %78 = add nsw i32 %77, 2
  %79 = add nsw i32 %78, 1
  %80 = sext i32 %79 to i64
  %81 = getelementptr inbounds i8, ptr %74, i64 %80
  %82 = load i8, ptr %81, align 1, !tbaa !27
  %83 = zext i8 %82 to i32
  %84 = add nsw i32 %73, %83
  %85 = add nsw i32 %84, 2
  %86 = ashr i32 %85, 2
  %87 = add nsw i32 %52, %86
  %88 = ashr i32 %87, 1
  %89 = trunc i32 %88 to i8
  %90 = load ptr, ptr %5, align 8, !tbaa !57
  %91 = load i32, ptr %10, align 4, !tbaa !9
  %92 = sext i32 %91 to i64
  %93 = load i64, ptr %8, align 8, !tbaa !107
  %94 = mul nsw i64 %92, %93
  %95 = load i32, ptr %9, align 4, !tbaa !9
  %96 = sext i32 %95 to i64
  %97 = add nsw i64 %94, %96
  %98 = getelementptr inbounds i8, ptr %90, i64 %97
  store i8 %89, ptr %98, align 1, !tbaa !27
  br label %99

99:                                               ; preds = %18
  %100 = load i32, ptr %9, align 4, !tbaa !9
  %101 = add nsw i32 %100, 1
  store i32 %101, ptr %9, align 4, !tbaa !9
  br label %15, !llvm.loop !112

102:                                              ; preds = %15
  br label %103

103:                                              ; preds = %102
  %104 = load i32, ptr %10, align 4, !tbaa !9
  %105 = add nsw i32 %104, 1
  store i32 %105, ptr %10, align 4, !tbaa !9
  br label %11, !llvm.loop !113

106:                                              ; preds = %11
  call void @llvm.lifetime.end.p0(i64 4, ptr %10) #10
  call void @llvm.lifetime.end.p0(i64 4, ptr %9) #10
  ret void
}