; Function Attrs: nofree norecurse nosync nounwind memory(argmem: readwrite) uwtable
define internal void @intra_pred_down_left(ptr noundef writeonly captures(none) %0, ptr noundef readonly captures(none) %1, ptr noundef readonly captures(none) %2, i64 noundef %3) #9 {
  br label %.preheader

.preheader:                                       ; preds = %4, %44
  %indvars.iv29 = phi i64 [ 0, %4 ], [ %indvars.iv.next30, %44 ]
  %5 = mul nsw i64 %3, %indvars.iv29
  %6 = getelementptr i8, ptr %0, i64 %5
  br label %7

7:                                                ; preds = %.preheader, %7
  %indvars.iv = phi i64 [ 0, %.preheader ], [ %indvars.iv.next, %7 ]
  %8 = add nuw nsw i64 %indvars.iv, %indvars.iv29
  %9 = add nuw nsw i64 %8, 2
  %10 = add nuw nsw i64 %8, 1
  %11 = getelementptr inbounds nuw i8, ptr %1, i64 %10
  %12 = load i8, ptr %11, align 1, !tbaa !24
  %13 = zext i8 %12 to i16
  %14 = getelementptr inbounds nuw i8, ptr %1, i64 %9
  %15 = load i8, ptr %14, align 1, !tbaa !24
  %16 = zext i8 %15 to i16
  %17 = shl nuw nsw i16 %16, 1
  %18 = add nuw nsw i64 %8, 3
  %19 = getelementptr inbounds nuw i8, ptr %1, i64 %18
  %20 = load i8, ptr %19, align 1, !tbaa !24
  %21 = zext i8 %20 to i16
  %22 = add nuw nsw i16 %13, 2
  %23 = add nuw nsw i16 %22, %17
  %24 = add nuw nsw i16 %23, %21
  %25 = lshr i16 %24, 2
  %26 = getelementptr inbounds nuw i8, ptr %2, i64 %10
  %27 = load i8, ptr %26, align 1, !tbaa !24
  %28 = zext i8 %27 to i16
  %29 = getelementptr inbounds nuw i8, ptr %2, i64 %9
  %30 = load i8, ptr %29, align 1, !tbaa !24
  %31 = zext i8 %30 to i16
  %32 = shl nuw nsw i16 %31, 1
  %33 = getelementptr inbounds nuw i8, ptr %2, i64 %18
  %34 = load i8, ptr %33, align 1, !tbaa !24
  %35 = zext i8 %34 to i16
  %36 = add nuw nsw i16 %28, 2
  %37 = add nuw nsw i16 %36, %32
  %38 = add nuw nsw i16 %37, %35
  %39 = lshr i16 %38, 2
  %40 = add nuw nsw i16 %39, %25
  %41 = lshr i16 %40, 1
  %42 = trunc nuw i16 %41 to i8
  %43 = getelementptr i8, ptr %6, i64 %indvars.iv
  store i8 %42, ptr %43, align 1, !tbaa !24
  %indvars.iv.next = add nuw nsw i64 %indvars.iv, 1
  %exitcond.not = icmp eq i64 %indvars.iv.next, 8
  br i1 %exitcond.not, label %44, label %7, !llvm.loop !100

44:                                               ; preds = %7
  %indvars.iv.next30 = add nuw nsw i64 %indvars.iv29, 1
  %exitcond32.not = icmp eq i64 %indvars.iv.next30, 8
  br i1 %exitcond32.not, label %45, label %.preheader, !llvm.loop !101

45:                                               ; preds = %44
  ret void
}